target datalayout = "e-m:e-p270:32:32-p271:32:32-p272:64:64-i64:64-i128:128-f80:128-n8:16:32:64-S128"
target triple = "x86_64-pc-linux-gnu"

@.str.3 = private unnamed_addr constant [9 x i8] c"use_prem\00", align 1
@.str.4 = private unnamed_addr constant [89 x i8] c"use pseudo-remainder instead of remainder when computing GCDs and Sturm-Tarski sequences\00", align 1
@.str.5 = private unnamed_addr constant [5 x i8] c"true\00", align 1
@.str.6 = private unnamed_addr constant [4 x i8] c"rcf\00", align 1
@.str.7 = private unnamed_addr constant [19 x i8] c"clean_denominators\00", align 1
@.str.8 = private unnamed_addr constant [41 x i8] c"clean denominators before root isolation\00", align 1
@.str.9 = private unnamed_addr constant [18 x i8] c"initial_precision\00", align 1
@.str.10 = private unnamed_addr constant [111 x i8] c"a value k that is the initial interval size (as 1/2^k) when creating transcendentals and approximated division\00", align 1
@.str.11 = private unnamed_addr constant [3 x i8] c"24\00", align 1
@.str.12 = private unnamed_addr constant [14 x i8] c"inf_precision\00", align 1
@.str.13 = private unnamed_addr constant [113 x i8] c"a value k that is the initial interval size (i.e., (0, 1/2^l)) used as an approximation for infinitesimal values\00", align 1
@.str.14 = private unnamed_addr constant [14 x i8] c"max_precision\00", align 1
@.str.15 = private unnamed_addr constant [153 x i8] c"during sign determination we switch from interval arithmetic to complete methods when the interval size is less than 1/2^k, where k is the max_precision\00", align 1
@.str.16 = private unnamed_addr constant [4 x i8] c"128\00", align 1
@.str.17 = private unnamed_addr constant [29 x i8] c"lazy_algebraic_normalization\00", align 1
@.str.18 = private unnamed_addr constant [144 x i8] c"during sturm-seq and square-free polynomial computations, only normalize algebraic polynomial expressions when the defining polynomial is monic\00", align 1

; Function Attrs: mustprogress uwtable
define linkonce_odr hidden void @_ZN10rcf_params20collect_param_descrsER12param_descrs(ptr noundef nonnull align 8 dereferenceable(8) %0) #6 comdat align 2 {
  %2 = alloca ptr, align 8
  store ptr %0, ptr %2, align 8, !tbaa !68
  %3 = load ptr, ptr %2, align 8, !tbaa !68
  call void @_ZN12param_descrs6insertEPKc12cmd_arg_kindS1_S1_S1_(ptr noundef nonnull align 8 dereferenceable(8) %3, ptr noundef @.str.3, i32 noundef 1, ptr noundef @.str.4, ptr noundef @.str.5, ptr noundef @.str.6)
  %4 = load ptr, ptr %2, align 8, !tbaa !68
  call void @_ZN12param_descrs6insertEPKc12cmd_arg_kindS1_S1_S1_(ptr noundef nonnull align 8 dereferenceable(8) %4, ptr noundef @.str.7, i32 noundef 1, ptr noundef @.str.8, ptr noundef @.str.5, ptr noundef @.str.6)
  %5 = load ptr, ptr %2, align 8, !tbaa !68
  call void @_ZN12param_descrs6insertEPKc12cmd_arg_kindS1_S1_S1_(ptr noundef nonnull align 8 dereferenceable(8) %5, ptr noundef @.str.9, i32 noundef 0, ptr noundef @.str.10, ptr noundef @.str.11, ptr noundef @.str.6)
  %6 = load ptr, ptr %2, align 8, !tbaa !68
  call void @_ZN12param_descrs6insertEPKc12cmd_arg_kindS1_S1_S1_(ptr noundef nonnull align 8 dereferenceable(8) %6, ptr noundef @.str.12, i32 noundef 0, ptr noundef @.str.13, ptr noundef @.str.11, ptr noundef @.str.6)
  %7 = load ptr, ptr %2, align 8, !tbaa !68
  call void @_ZN12param_descrs6insertEPKc12cmd_arg_kindS1_S1_S1_(ptr noundef nonnull align 8 dereferenceable(8) %7, ptr noundef @.str.14, i32 noundef 0, ptr noundef @.str.15, ptr noundef @.str.16, ptr noundef @.str.6)
  %8 = load ptr, ptr %2, align 8, !tbaa !68
  call void @_ZN12param_descrs6insertEPKc12cmd_arg_kindS1_S1_S1_(ptr noundef nonnull align 8 dereferenceable(8) %8, ptr noundef @.str.17, i32 noundef 1, ptr noundef @.str.18, ptr noundef @.str.5, ptr noundef @.str.6)
  ret void
}

; Function Attrs: mustprogress uwtable
define hidden void @_ZN11realclosure7manager16get_param_descrsER12param_descrs(ptr noundef nonnull align 8 dereferenceable(8) %0) #6 align 2 {
  %2 = alloca ptr, align 8
  store ptr %0, ptr %2, align 8, !tbaa !68
  %3 = load ptr, ptr %2, align 8, !tbaa !68
  call void @_ZN10rcf_params20collect_param_descrsER12param_descrs(ptr noundef nonnull align 8 dereferenceable(8) %3)
  ret void
}