; Function Attrs: mustprogress uwtable
define hidden void @_ZN11realclosure7manager16get_param_descrsER12param_descrs(ptr noundef nonnull align 8 dereferenceable(8) %0) local_unnamed_addr #5 align 2 {
  tail call void @_ZN12param_descrs6insertEPKc12cmd_arg_kindS1_S1_S1_(ptr noundef nonnull align 8 dereferenceable(8) %0, ptr noundef nonnull @.str.3, i32 noundef 1, ptr noundef nonnull @.str.4, ptr noundef nonnull @.str.5, ptr noundef nonnull @.str.6)
  tail call void @_ZN12param_descrs6insertEPKc12cmd_arg_kindS1_S1_S1_(ptr noundef nonnull align 8 dereferenceable(8) %0, ptr noundef nonnull @.str.7, i32 noundef 1, ptr noundef nonnull @.str.8, ptr noundef nonnull @.str.5, ptr noundef nonnull @.str.6)
  tail call void @_ZN12param_descrs6insertEPKc12cmd_arg_kindS1_S1_S1_(ptr noundef nonnull align 8 dereferenceable(8) %0, ptr noundef nonnull @.str.9, i32 noundef 0, ptr noundef nonnull @.str.10, ptr noundef nonnull @.str.11, ptr noundef nonnull @.str.6)
  tail call void @_ZN12param_descrs6insertEPKc12cmd_arg_kindS1_S1_S1_(ptr noundef nonnull align 8 dereferenceable(8) %0, ptr noundef nonnull @.str.12, i32 noundef 0, ptr noundef nonnull @.str.13, ptr noundef nonnull @.str.11, ptr noundef nonnull @.str.6)
  tail call void @_ZN12param_descrs6insertEPKc12cmd_arg_kindS1_S1_S1_(ptr noundef nonnull align 8 dereferenceable(8) %0, ptr noundef nonnull @.str.14, i32 noundef 0, ptr noundef nonnull @.str.15, ptr noundef nonnull @.str.16, ptr noundef nonnull @.str.6)
  tail call void @_ZN12param_descrs6insertEPKc12cmd_arg_kindS1_S1_S1_(ptr noundef nonnull align 8 dereferenceable(8) %0, ptr noundef nonnull @.str.17, i32 noundef 1, ptr noundef nonnull @.str.18, ptr noundef nonnull @.str.5, ptr noundef nonnull @.str.6)
  ret void
}